(dp0
S'bop_bal'
p1
S'bop_balance'
p2
sS'prepay'
p3
S'prepayment'
p4
sS'loantape_loan_identity'
p5
V\u4ed8\u4e00\u534a\u8ba2\u5355\u7f16\u53f7
p6
sS'sche_bal'
p7
S'due_prin'
p8
sS'orig_bal'
p9
S'original_balance'
p10
sS'time_schedule'
p11
S'sche_date'
p12
sS'repayment_dir'
p13
VE:\u005cBHHJ\u005cReport\u005c\u4f18\u4fe1\u005cuxin_repayment-2018-01-16.csv
p14
sS'add_code'
p15
S''
p16
sS'loantape_dir'
p17
VE:\u005cBHHJ\u005cReport\u005c\u4f18\u4fe1\u005cuxin_loantape-2018-01-16.csv
p18
sS'default_bal'
p19
S'due_prin'
p20
sS'repayment_loan_identity'
p21
S'loan_number'
p22
s.